; Function Attrs: nounwind uwtable
define internal noundef zeroext i1 @ftp_endofresp(ptr readnone captures(none) %0, ptr readnone captures(none) %1, ptr noundef readonly captures(none) %2, i64 noundef %3, ptr noundef writeonly captures(none) %4) #0 {
  %6 = icmp ugt i64 %3, 3
  br i1 %6, label %7, label %25

7:                                                ; preds = %5
  %8 = load i8, ptr %2, align 1, !tbaa !20
  %9 = add i8 %8, -48
  %or.cond = icmp ult i8 %9, 10
  br i1 %or.cond, label %10, label %25

10:                                               ; preds = %7
  %11 = getelementptr inbounds nuw i8, ptr %2, i64 1
  %12 = load i8, ptr %11, align 1, !tbaa !20
  %13 = add i8 %12, -48
  %or.cond13 = icmp ult i8 %13, 10
  br i1 %or.cond13, label %14, label %25

14:                                               ; preds = %10
  %15 = getelementptr inbounds nuw i8, ptr %2, i64 2
  %16 = load i8, ptr %15, align 1, !tbaa !20
  %17 = add i8 %16, -48
  %or.cond14 = icmp ult i8 %17, 10
  br i1 %or.cond14, label %18, label %25

18:                                               ; preds = %14
  %19 = getelementptr inbounds nuw i8, ptr %2, i64 3
  %20 = load i8, ptr %19, align 1, !tbaa !20
  %21 = icmp eq i8 %20, 32
  br i1 %21, label %22, label %25

22:                                               ; preds = %18
  %23 = tail call i64 @strtol(ptr noundef nonnull captures(none) %2, ptr noundef null, i32 noundef 10) #10
  %24 = tail call i32 @curlx_sltosi(i64 noundef %23) #10
  store i32 %24, ptr %4, align 4, !tbaa !147
  br label %25

25:                                               ; preds = %5, %7, %10, %14, %18, %22
  %.0 = phi i1 [ true, %22 ], [ false, %18 ], [ false, %14 ], [ false, %10 ], [ false, %7 ], [ false, %5 ]
  ret i1 %.0
}